target datalayout = "e-m:e-p270:32:32-p271:32:32-p272:64:64-i64:64-i128:128-f80:128-n8:16:32:64-S128"
target triple = "x86_64-pc-linux-gnu"

%struct.Gia_ManTranStochParam = type { ptr, i32, i32, i32, i32, i32, i32, i32, i32, i32, i32, i32, ptr, i32, i32, i32, ptr, i32, ptr }

; Function Attrs: nounwind uwtable
define void @Gia_ManTranStochLock(ptr noundef %0) #0 {
  %2 = alloca ptr, align 8
  store ptr %0, ptr %2, align 8, !tbaa !40
  %3 = load ptr, ptr %2, align 8, !tbaa !40
  %4 = getelementptr inbounds nuw %struct.Gia_ManTranStochParam, ptr %3, i32 0, i32 17
  %5 = load i32, ptr %4, align 8, !tbaa !42
  %6 = icmp ne i32 %5, 0
  br i1 %6, label %7, label %12

7:                                                ; preds = %1
  %8 = load ptr, ptr %2, align 8, !tbaa !40
  %9 = getelementptr inbounds nuw %struct.Gia_ManTranStochParam, ptr %8, i32 0, i32 18
  %10 = load ptr, ptr %9, align 8, !tbaa !44
  %11 = call i32 @pthread_mutex_lock(ptr noundef %10) #10
  br label %12

12:                                               ; preds = %7, %1
  ret void
}